target datalayout = "e-m:e-p270:32:32-p271:32:32-p272:64:64-i64:64-i128:128-f80:128-n8:16:32:64-S128"
target triple = "x86_64-pc-linux-gnu"

%"class.icu_77::UnicodeString" = type { %"class.icu_77::Replaceable", %"union.icu_77::UnicodeString::StackBufferOrFields" }
%"class.icu_77::Replaceable" = type { %"class.icu_77::UObject" }
%"class.icu_77::UObject" = type { ptr }
%"union.icu_77::UnicodeString::StackBufferOrFields" = type { %struct.anon.0, [32 x i8] }
%struct.anon.0 = type { i16, i32, i32, ptr }
%"class.icu_77::DateTimePatternGenerator" = type <{ %"class.icu_77::UObject", %"class.icu_77::Locale", ptr, ptr, ptr, ptr, [16 x %"class.icu_77::UnicodeString"], [16 x [3 x %"class.icu_77::UnicodeString"]], [4 x %"class.icu_77::UnicodeString"], %"class.icu_77::UnicodeString", ptr, ptr, %"class.icu_77::UnicodeString", i16, [2 x i8], [7 x i32], i32, [4 x i8] }>
%"class.icu_77::Locale" = type <{ %"class.icu_77::UObject", [12 x i8], [6 x i8], [4 x i8], [2 x i8], i32, [4 x i8], ptr, [157 x i8], [3 x i8], ptr, i8, [7 x i8] }>

; Function Attrs: inlinehint mustprogress nounwind uwtable
define internal noundef signext i8 @_ZL9U_FAILURE10UErrorCode(i32 noundef %0) #2 {
  %2 = alloca i32, align 4
  store i32 %0, ptr %2, align 4, !tbaa !15
  %3 = load i32, ptr %2, align 4, !tbaa !15
  %4 = icmp sgt i32 %3, 0
  %5 = zext i1 %4 to i8
  ret i8 %5
}

; Function Attrs: mustprogress uwtable
define void @_ZN6icu_7724DateTimePatternGenerator17setDateTimeFormatE16UDateFormatStyleRKNS_13UnicodeStringER10UErrorCode(ptr noundef nonnull align 8 dereferenceable(4796) %0, i32 noundef %1, ptr noundef nonnull align 8 dereferenceable(64) %2, ptr noundef nonnull align 4 dereferenceable(4) %3) #1 align 2 {
  %5 = alloca ptr, align 8
  %6 = alloca i32, align 4
  %7 = alloca ptr, align 8
  %8 = alloca ptr, align 8
  store ptr %0, ptr %5, align 8, !tbaa !23
  store i32 %1, ptr %6, align 4, !tbaa !194
  store ptr %2, ptr %7, align 8, !tbaa !60
  store ptr %3, ptr %8, align 8, !tbaa !22
  %9 = load ptr, ptr %5, align 8
  %10 = load ptr, ptr %8, align 8, !tbaa !22
  %11 = load i32, ptr %10, align 4, !tbaa !15
  %12 = call noundef signext i8 @_ZL9U_FAILURE10UErrorCode(i32 noundef %11)
  %13 = icmp ne i8 %12, 0
  br i1 %13, label %14, label %15

14:                                               ; preds = %4
  br label %35

15:                                               ; preds = %4
  %16 = load i32, ptr %6, align 4, !tbaa !194
  %17 = icmp slt i32 %16, 0
  br i1 %17, label %21, label %18

18:                                               ; preds = %15
  %19 = load i32, ptr %6, align 4, !tbaa !194
  %20 = icmp sgt i32 %19, 3
  br i1 %20, label %21, label %23

21:                                               ; preds = %18, %15
  %22 = load ptr, ptr %8, align 8, !tbaa !22
  store i32 1, ptr %22, align 4, !tbaa !15
  br label %35

23:                                               ; preds = %18
  %24 = load ptr, ptr %7, align 8, !tbaa !60
  %25 = getelementptr inbounds nuw %"class.icu_77::DateTimePatternGenerator", ptr %9, i32 0, i32 8
  %26 = load i32, ptr %6, align 4, !tbaa !194
  %27 = sext i32 %26 to i64
  %28 = getelementptr inbounds [4 x %"class.icu_77::UnicodeString"], ptr %25, i64 0, i64 %27
  %29 = call noundef nonnull align 8 dereferenceable(64) ptr @_ZN6icu_7713UnicodeStringaSERKS0_(ptr noundef nonnull align 8 dereferenceable(64) %28, ptr noundef nonnull align 8 dereferenceable(64) %24)
  %30 = getelementptr inbounds nuw %"class.icu_77::DateTimePatternGenerator", ptr %9, i32 0, i32 8
  %31 = load i32, ptr %6, align 4, !tbaa !194
  %32 = sext i32 %31 to i64
  %33 = getelementptr inbounds [4 x %"class.icu_77::UnicodeString"], ptr %30, i64 0, i64 %32
  %34 = call noundef ptr @_ZN6icu_7713UnicodeString19getTerminatedBufferEv(ptr noundef nonnull align 8 dereferenceable(64) %33)
  br label %35

35:                                               ; preds = %23, %21, %14
  ret void
}

; Function Attrs: mustprogress uwtable
define void @_ZN6icu_7724DateTimePatternGenerator17setDateTimeFormatERKNS_13UnicodeStringE(ptr noundef nonnull align 8 dereferenceable(4796) %0, ptr noundef nonnull align 8 dereferenceable(64) %1) #1 align 2 {
  %3 = alloca ptr, align 8
  %4 = alloca ptr, align 8
  %5 = alloca i32, align 4
  %6 = alloca i32, align 4
  store ptr %0, ptr %3, align 8, !tbaa !23
  store ptr %1, ptr %4, align 8, !tbaa !60
  %7 = load ptr, ptr %3, align 8
  call void @llvm.lifetime.start.p0(i64 4, ptr %5) #13
  store i32 0, ptr %5, align 4, !tbaa !15
  call void @llvm.lifetime.start.p0(i64 4, ptr %6) #13
  store i32 0, ptr %6, align 4, !tbaa !14
  br label %8

8:                                                ; preds = %15, %2
  %9 = load i32, ptr %6, align 4, !tbaa !14
  %10 = icmp sle i32 %9, 3
  br i1 %10, label %12, label %11

11:                                               ; preds = %8
  call void @llvm.lifetime.end.p0(i64 4, ptr %6) #13
  br label %18

12:                                               ; preds = %8
  %13 = load i32, ptr %6, align 4, !tbaa !14
  %14 = load ptr, ptr %4, align 8, !tbaa !60
  call void @_ZN6icu_7724DateTimePatternGenerator17setDateTimeFormatE16UDateFormatStyleRKNS_13UnicodeStringER10UErrorCode(ptr noundef nonnull align 8 dereferenceable(4796) %7, i32 noundef %13, ptr noundef nonnull align 8 dereferenceable(64) %14, ptr noundef nonnull align 4 dereferenceable(4) %5)
  br label %15

15:                                               ; preds = %12
  %16 = load i32, ptr %6, align 4, !tbaa !14
  %17 = add nsw i32 %16, 1
  store i32 %17, ptr %6, align 4, !tbaa !14
  br label %8, !llvm.loop !213

18:                                               ; preds = %11
  call void @llvm.lifetime.end.p0(i64 4, ptr %5) #13
  ret void
}