; Function Attrs: mustprogress uwtable
define void @_ZN6icu_7724DateTimePatternGenerator17setDateTimeFormatERKNS_13UnicodeStringE(ptr noundef nonnull align 8 dereferenceable(4796) %0, ptr noundef nonnull align 8 dereferenceable(64) %1) local_unnamed_addr #1 align 2 {
  %3 = getelementptr inbounds nuw i8, ptr %0, i64 4360
  br label %_ZN6icu_7724DateTimePatternGenerator17setDateTimeFormatE16UDateFormatStyleRKNS_13UnicodeStringER10UErrorCode.exit

4:                                                ; preds = %_ZN6icu_7724DateTimePatternGenerator17setDateTimeFormatE16UDateFormatStyleRKNS_13UnicodeStringER10UErrorCode.exit
  ret void

_ZN6icu_7724DateTimePatternGenerator17setDateTimeFormatE16UDateFormatStyleRKNS_13UnicodeStringER10UErrorCode.exit: ; preds = %2, %_ZN6icu_7724DateTimePatternGenerator17setDateTimeFormatE16UDateFormatStyleRKNS_13UnicodeStringER10UErrorCode.exit
  %indvars.iv = phi i64 [ 0, %2 ], [ %indvars.iv.next, %_ZN6icu_7724DateTimePatternGenerator17setDateTimeFormatE16UDateFormatStyleRKNS_13UnicodeStringER10UErrorCode.exit ]
  %5 = getelementptr inbounds nuw [4 x %"class.icu_77::UnicodeString"], ptr %3, i64 0, i64 %indvars.iv
  %6 = tail call noundef nonnull align 8 dereferenceable(64) ptr @_ZN6icu_7713UnicodeStringaSERKS0_(ptr noundef nonnull align 8 dereferenceable(64) %5, ptr noundef nonnull align 8 dereferenceable(64) %1)
  %7 = tail call noundef ptr @_ZN6icu_7713UnicodeString19getTerminatedBufferEv(ptr noundef nonnull align 8 dereferenceable(64) %5)
  %indvars.iv.next = add nuw nsw i64 %indvars.iv, 1
  %exitcond.not = icmp eq i64 %indvars.iv.next, 4
  br i1 %exitcond.not, label %4, label %_ZN6icu_7724DateTimePatternGenerator17setDateTimeFormatE16UDateFormatStyleRKNS_13UnicodeStringER10UErrorCode.exit, !llvm.loop !159
}